target datalayout = "e-m:e-p270:32:32-p271:32:32-p272:64:64-i64:64-i128:128-f80:128-n8:16:32:64-S128"
target triple = "x86_64-pc-linux-gnu"

%"class.tbb::detail::r1::basic_tls" = type { i32 }
%"class.tbb::detail::r1::thread_data" = type { %"struct.tbb::detail::d1::intrusive_list_node", i16, i8, i8, ptr, ptr, ptr, ptr, %"class.tbb::detail::r1::mail_inbox", %"class.tbb::detail::r1::FastRandom", ptr, ptr, ptr, i32, ptr, %"class.tbb::detail::d1::task_group_context" }
%"struct.tbb::detail::d1::intrusive_list_node" = type { ptr, ptr }
%"class.tbb::detail::r1::mail_inbox" = type { ptr }
%"class.tbb::detail::r1::FastRandom" = type { i32, i32 }
%"class.tbb::detail::d1::task_group_context" = type { i64, %"struct.std::atomic.4", i8, %"struct.tbb::detail::d1::task_group_context::context_traits", %"struct.std::atomic.6", %"struct.std::atomic.8", %union.anon, ptr, %"struct.tbb::detail::d1::intrusive_list_node", %"struct.std::atomic.9", ptr, i64, [56 x i8] }
%"struct.std::atomic.4" = type { %"struct.std::__atomic_base.5" }
%"struct.std::__atomic_base.5" = type { i32 }
%"struct.tbb::detail::d1::task_group_context::context_traits" = type { i8 }
%"struct.std::atomic.6" = type { %"struct.std::__atomic_base.7" }
%"struct.std::__atomic_base.7" = type { i8 }
%"struct.std::atomic.8" = type { i8 }
%union.anon = type { ptr }
%"struct.std::atomic.9" = type { %"struct.std::__atomic_base.10" }
%"struct.std::__atomic_base.10" = type { ptr }
%"struct.tbb::detail::r1::arena_base" = type { %"struct.tbb::detail::d0::padded.11", %"struct.std::atomic.4", %"struct.std::atomic.4", %"struct.std::atomic.4", [4 x i8], %"class.tbb::detail::r1::task_stream", %"class.tbb::detail::r1::task_stream", %"class.tbb::detail::r1::task_stream.15", i32, i32, %"struct.std::atomic", %"class.tbb::detail::r1::atomic_flag", %"class.tbb::detail::r1::observer_list", ptr, ptr, ptr, %"class.tbb::detail::r1::concurrent_monitor", %"class.tbb::detail::r1::arena_co_cache", %"class.tbb::detail::r1::atomic_flag", i32, i32, i32, i32, %"class.tbb::detail::r1::threading_control_client" }
%"struct.tbb::detail::d0::padded.11" = type { %"struct.tbb::detail::d0::padded_base.12" }
%"struct.tbb::detail::d0::padded_base.12" = type { %"struct.tbb::detail::d1::intrusive_list_node", [112 x i8] }
%"class.tbb::detail::r1::task_stream" = type <{ %"struct.std::atomic.13", ptr, i32, [4 x i8] }>
%"struct.std::atomic.13" = type { %"struct.std::__atomic_base.14" }
%"struct.std::__atomic_base.14" = type { i64 }
%"class.tbb::detail::r1::task_stream.15" = type <{ %"struct.std::atomic.13", ptr, i32, [4 x i8] }>
%"struct.std::atomic" = type { %"struct.std::__atomic_base" }
%"struct.std::__atomic_base" = type { i8 }
%"class.tbb::detail::r1::observer_list" = type { %"struct.std::atomic.18", %"struct.std::atomic.18", %"class.tbb::detail::d0::aligned_space", ptr }
%"struct.std::atomic.18" = type { %"struct.std::__atomic_base.19" }
%"struct.std::__atomic_base.19" = type { ptr }
%"class.tbb::detail::d0::aligned_space" = type { [8 x i8] }
%"class.tbb::detail::r1::concurrent_monitor" = type { %"class.tbb::detail::r1::concurrent_monitor_base.base", [4 x i8] }
%"class.tbb::detail::r1::concurrent_monitor_base.base" = type <{ %"class.tbb::detail::r1::concurrent_monitor_mutex", %"class.tbb::detail::r1::circular_doubly_linked_list_with_sentinel", %"struct.std::atomic.4" }>
%"class.tbb::detail::r1::concurrent_monitor_mutex" = type { %"struct.std::atomic.0", %"struct.std::atomic.0" }
%"struct.std::atomic.0" = type { %"struct.std::__atomic_base.1" }
%"struct.std::__atomic_base.1" = type { i32 }
%"class.tbb::detail::r1::circular_doubly_linked_list_with_sentinel" = type { %"struct.std::atomic.13", %"struct.tbb::detail::r1::circular_doubly_linked_list_with_sentinel::base_node" }
%"struct.tbb::detail::r1::circular_doubly_linked_list_with_sentinel::base_node" = type { ptr, ptr }
%"class.tbb::detail::r1::arena_co_cache" = type <{ ptr, i32, i32, %"class.tbb::detail::d1::spin_mutex", [7 x i8] }>
%"class.tbb::detail::d1::spin_mutex" = type { %"struct.std::atomic" }
%"class.tbb::detail::r1::atomic_flag" = type { %"struct.std::atomic.13" }
%"class.tbb::detail::r1::threading_control_client" = type { ptr, ptr }
%"class.tbb::detail::d1::task_arena_base" = type { i64, %"struct.std::atomic.37", %"struct.std::atomic.38", i32, i32, i32, i32, i32, i32 }
%"struct.std::atomic.37" = type { i32 }
%"struct.std::atomic.38" = type { %"struct.std::__atomic_base.39" }
%"struct.std::__atomic_base.39" = type { ptr }

@.str = private unnamed_addr constant [39 x i8] c"thread_data pointer should not be null\00", align 1
@.str.1 = private unnamed_addr constant [33 x i8] c"arena pointer should not be null\00", align 1
@.str.2 = private unnamed_addr constant [35 x i8] c"context pointer should not be null\00", align 1
@_ZN3tbb6detail2r18governor6theTLSE = external global %"class.tbb::detail::r1::basic_tls", align 4

; Function Attrs: mustprogress nounwind sspstrong uwtable
define linkonce_odr noundef i32 @_ZStanSt12memory_orderSt23__memory_order_modifier(i32 noundef %0, i32 noundef %1) #1 comdat {
  %3 = alloca i32, align 4
  %4 = alloca i32, align 4
  store i32 %0, ptr %3, align 4, !tbaa !102
  store i32 %1, ptr %4, align 4, !tbaa !334
  %5 = load i32, ptr %3, align 4, !tbaa !102
  %6 = load i32, ptr %4, align 4, !tbaa !334
  %7 = and i32 %5, %6
  ret i32 %7
}

; Function Attrs: mustprogress nounwind sspstrong uwtable
define linkonce_odr void @_ZN3tbb6detail2d023suppress_unused_warningIJRPNS0_2d118task_group_contextERPKcEEEvDpOT_(ptr noundef nonnull align 8 dereferenceable(8) %0, ptr noundef nonnull align 8 dereferenceable(8) %1) #1 comdat {
  %3 = alloca ptr, align 8
  %4 = alloca ptr, align 8
  store ptr %0, ptr %3, align 8, !tbaa !228
  store ptr %1, ptr %4, align 8, !tbaa !584
  ret void
}

; Function Attrs: mustprogress nounwind sspstrong uwtable
define linkonce_odr void @_ZN3tbb6detail2d023suppress_unused_warningIJRPNS0_2r15arenaERPKcEEEvDpOT_(ptr noundef nonnull align 8 dereferenceable(8) %0, ptr noundef nonnull align 8 dereferenceable(8) %1) #1 comdat {
  %3 = alloca ptr, align 8
  %4 = alloca ptr, align 8
  store ptr %0, ptr %3, align 8, !tbaa !582
  store ptr %1, ptr %4, align 8, !tbaa !584
  ret void
}

; Function Attrs: alwaysinline mustprogress nounwind sspstrong uwtable
define linkonce_odr noundef ptr @_ZNKSt13__atomic_baseIPN3tbb6detail2r15arenaEE4loadESt12memory_order(ptr noundef nonnull align 8 dereferenceable(8) %0, i32 noundef %1) #5 comdat align 2 {
  %3 = alloca ptr, align 8
  %4 = alloca i32, align 4
  %5 = alloca i32, align 4
  %6 = alloca ptr, align 8
  store ptr %0, ptr %3, align 8, !tbaa !580
  store i32 %1, ptr %4, align 4, !tbaa !102
  %7 = load ptr, ptr %3, align 8
  call void @llvm.lifetime.start.p0(i64 4, ptr %5) #12
  %8 = load i32, ptr %4, align 4, !tbaa !102
  %9 = call noundef i32 @_ZStanSt12memory_orderSt23__memory_order_modifier(i32 noundef %8, i32 noundef 65535)
  store i32 %9, ptr %5, align 4, !tbaa !102
  br label %10

10:                                               ; preds = %2
  br label %11

11:                                               ; preds = %10
  br label %12

12:                                               ; preds = %11
  br label %13

13:                                               ; preds = %12
  br label %14

14:                                               ; preds = %13
  br label %15

15:                                               ; preds = %14
  %16 = getelementptr inbounds nuw %"struct.std::__atomic_base.39", ptr %7, i32 0, i32 0
  %17 = load i32, ptr %4, align 4, !tbaa !102
  switch i32 %17, label %18 [
    i32 1, label %20
    i32 2, label %20
    i32 5, label %22
  ]

18:                                               ; preds = %15
  %19 = load atomic i64, ptr %16 monotonic, align 8
  store i64 %19, ptr %6, align 8
  br label %24

20:                                               ; preds = %15, %15
  %21 = load atomic i64, ptr %16 acquire, align 8
  store i64 %21, ptr %6, align 8
  br label %24

22:                                               ; preds = %15
  %23 = load atomic i64, ptr %16 seq_cst, align 8
  store i64 %23, ptr %6, align 8
  br label %24

24:                                               ; preds = %22, %20, %18
  %25 = load ptr, ptr %6, align 8, !tbaa !43
  call void @llvm.lifetime.end.p0(i64 4, ptr %5) #12
  ret ptr %25
}

; Function Attrs: mustprogress nounwind sspstrong uwtable
define linkonce_odr void @_ZN3tbb6detail2d023suppress_unused_warningIJRPNS0_2r111thread_dataERPKcEEEvDpOT_(ptr noundef nonnull align 8 dereferenceable(8) %0, ptr noundef nonnull align 8 dereferenceable(8) %1) #1 comdat {
  %3 = alloca ptr, align 8
  %4 = alloca ptr, align 8
  store ptr %0, ptr %3, align 8, !tbaa !502
  store ptr %1, ptr %4, align 8, !tbaa !584
  ret void
}

; Function Attrs: mustprogress nounwind sspstrong uwtable
define linkonce_odr noundef ptr @_ZN3tbb6detail2r19basic_tlsIPNS1_11thread_dataEE3getEv(ptr noundef nonnull align 4 dereferenceable(4) %0) #1 comdat align 2 {
  %2 = alloca ptr, align 8
  store ptr %0, ptr %2, align 8, !tbaa !353
  %3 = load ptr, ptr %2, align 8
  %4 = getelementptr inbounds nuw %"class.tbb::detail::r1::basic_tls", ptr %3, i32 0, i32 0
  %5 = load i32, ptr %4, align 4, !tbaa !355
  %6 = call ptr @pthread_getspecific(i32 noundef %5) #12
  ret ptr %6
}

; Function Attrs: mustprogress sspstrong uwtable
define linkonce_odr noundef zeroext i1 @_ZN3tbb6detail2d020assert_pointer_validILm0ENS0_2d118task_group_contextEEEbPT0_PKc(ptr noundef %0, ptr noundef %1) #2 comdat {
  %3 = alloca ptr, align 8
  %4 = alloca ptr, align 8
  store ptr %0, ptr %3, align 8, !tbaa !159
  store ptr %1, ptr %4, align 8, !tbaa !197
  call void @_ZN3tbb6detail2d023suppress_unused_warningIJRPNS0_2d118task_group_contextERPKcEEEvDpOT_(ptr noundef nonnull align 8 dereferenceable(8) %3, ptr noundef nonnull align 8 dereferenceable(8) %4)
  ret i1 true
}

; Function Attrs: mustprogress sspstrong uwtable
define linkonce_odr noundef zeroext i1 @_ZN3tbb6detail2d020assert_pointer_validILm0ENS0_2r15arenaEEEbPT0_PKc(ptr noundef %0, ptr noundef %1) #2 comdat {
  %3 = alloca ptr, align 8
  %4 = alloca ptr, align 8
  store ptr %0, ptr %3, align 8, !tbaa !43
  store ptr %1, ptr %4, align 8, !tbaa !197
  call void @_ZN3tbb6detail2d023suppress_unused_warningIJRPNS0_2r15arenaERPKcEEEvDpOT_(ptr noundef nonnull align 8 dereferenceable(8) %3, ptr noundef nonnull align 8 dereferenceable(8) %4)
  ret i1 true
}

; Function Attrs: mustprogress nounwind sspstrong uwtable
define linkonce_odr noundef ptr @_ZNKSt6atomicIPN3tbb6detail2r15arenaEE4loadESt12memory_order(ptr noundef nonnull align 8 dereferenceable(8) %0, i32 noundef %1) #1 comdat align 2 {
  %3 = alloca ptr, align 8
  %4 = alloca i32, align 4
  store ptr %0, ptr %3, align 8, !tbaa !264
  store i32 %1, ptr %4, align 4, !tbaa !102
  %5 = load ptr, ptr %3, align 8
  %6 = getelementptr inbounds nuw %"struct.std::atomic.38", ptr %5, i32 0, i32 0
  %7 = load i32, ptr %4, align 4, !tbaa !102
  %8 = call noundef ptr @_ZNKSt13__atomic_baseIPN3tbb6detail2r15arenaEE4loadESt12memory_order(ptr noundef nonnull align 8 dereferenceable(8) %6, i32 noundef %7) #12
  ret ptr %8
}

; Function Attrs: mustprogress sspstrong uwtable
define linkonce_odr noundef zeroext i1 @_ZN3tbb6detail2d020assert_pointer_validILm0ENS0_2r111thread_dataEEEbPT0_PKc(ptr noundef %0, ptr noundef %1) #2 comdat {
  %3 = alloca ptr, align 8
  %4 = alloca ptr, align 8
  store ptr %0, ptr %3, align 8, !tbaa !3
  store ptr %1, ptr %4, align 8, !tbaa !197
  call void @_ZN3tbb6detail2d023suppress_unused_warningIJRPNS0_2r111thread_dataERPKcEEEvDpOT_(ptr noundef nonnull align 8 dereferenceable(8) %3, ptr noundef nonnull align 8 dereferenceable(8) %4)
  ret i1 true
}

; Function Attrs: mustprogress sspstrong uwtable
define linkonce_odr noundef ptr @_ZN3tbb6detail2r18governor15get_thread_dataEv() #2 comdat align 2 {
  %1 = alloca ptr, align 8
  %2 = alloca ptr, align 8
  %3 = alloca i32, align 4
  call void @llvm.lifetime.start.p0(i64 8, ptr %2) #12
  %4 = call noundef ptr @_ZN3tbb6detail2r19basic_tlsIPNS1_11thread_dataEE3getEv(ptr noundef nonnull align 4 dereferenceable(4) @_ZN3tbb6detail2r18governor6theTLSE)
  store ptr %4, ptr %2, align 8, !tbaa !3
  %5 = load ptr, ptr %2, align 8, !tbaa !3
  %6 = icmp ne ptr %5, null
  br i1 %6, label %7, label %9

7:                                                ; preds = %0
  %8 = load ptr, ptr %2, align 8, !tbaa !3
  store ptr %8, ptr %1, align 8
  store i32 1, ptr %3, align 4
  br label %12

9:                                                ; preds = %0
  call void @_ZN3tbb6detail2r18governor20init_external_threadEv()
  %10 = call noundef ptr @_ZN3tbb6detail2r19basic_tlsIPNS1_11thread_dataEE3getEv(ptr noundef nonnull align 4 dereferenceable(4) @_ZN3tbb6detail2r18governor6theTLSE)
  store ptr %10, ptr %2, align 8, !tbaa !3
  %11 = load ptr, ptr %2, align 8, !tbaa !3
  store ptr %11, ptr %1, align 8
  store i32 1, ptr %3, align 4
  br label %12

12:                                               ; preds = %9, %7
  call void @llvm.lifetime.end.p0(i64 8, ptr %2) #12
  %13 = load ptr, ptr %1, align 8
  ret ptr %13
}

; Function Attrs: mustprogress sspstrong uwtable
define void @_ZN3tbb6detail2r115task_arena_impl7enqueueERNS0_2d14taskEPNS3_18task_group_contextEPNS3_15task_arena_baseE(ptr noundef nonnull align 64 dereferenceable(64) %0, ptr noundef %1, ptr noundef %2) #2 align 2 {
  %4 = alloca ptr, align 8
  %5 = alloca ptr, align 8
  %6 = alloca ptr, align 8
  %7 = alloca ptr, align 8
  %8 = alloca ptr, align 8
  %9 = alloca ptr, align 8
  store ptr %0, ptr %4, align 8, !tbaa !133
  store ptr %1, ptr %5, align 8, !tbaa !159
  store ptr %2, ptr %6, align 8, !tbaa !237
  call void @llvm.lifetime.start.p0(i64 8, ptr %7) #12
  %10 = call noundef ptr @_ZN3tbb6detail2r18governor15get_thread_dataEv()
  store ptr %10, ptr %7, align 8, !tbaa !3
  %11 = load ptr, ptr %7, align 8, !tbaa !3
  %12 = call noundef zeroext i1 @_ZN3tbb6detail2d020assert_pointer_validILm0ENS0_2r111thread_dataEEEbPT0_PKc(ptr noundef %11, ptr noundef @.str)
  call void @llvm.lifetime.start.p0(i64 8, ptr %8) #12
  %13 = load ptr, ptr %6, align 8, !tbaa !237
  %14 = icmp ne ptr %13, null
  br i1 %14, label %15, label %19

15:                                               ; preds = %3
  %16 = load ptr, ptr %6, align 8, !tbaa !237
  %17 = getelementptr inbounds nuw %"class.tbb::detail::d1::task_arena_base", ptr %16, i32 0, i32 2
  %18 = call noundef ptr @_ZNKSt6atomicIPN3tbb6detail2r15arenaEE4loadESt12memory_order(ptr noundef nonnull align 8 dereferenceable(8) %17, i32 noundef 0) #12
  br label %23

19:                                               ; preds = %3
  %20 = load ptr, ptr %7, align 8, !tbaa !3
  %21 = getelementptr inbounds nuw %"class.tbb::detail::r1::thread_data", ptr %20, i32 0, i32 5
  %22 = load ptr, ptr %21, align 8, !tbaa !137
  br label %23

23:                                               ; preds = %19, %15
  %24 = phi ptr [ %18, %15 ], [ %22, %19 ]
  store ptr %24, ptr %8, align 8, !tbaa !43
  %25 = load ptr, ptr %8, align 8, !tbaa !43
  %26 = call noundef zeroext i1 @_ZN3tbb6detail2d020assert_pointer_validILm0ENS0_2r15arenaEEEbPT0_PKc(ptr noundef %25, ptr noundef @.str.1)
  call void @llvm.lifetime.start.p0(i64 8, ptr %9) #12
  %27 = load ptr, ptr %5, align 8, !tbaa !159
  %28 = icmp ne ptr %27, null
  br i1 %28, label %29, label %31

29:                                               ; preds = %23
  %30 = load ptr, ptr %5, align 8, !tbaa !159
  br label %35

31:                                               ; preds = %23
  %32 = load ptr, ptr %8, align 8, !tbaa !43
  %33 = getelementptr inbounds nuw %"struct.tbb::detail::r1::arena_base", ptr %32, i32 0, i32 15
  %34 = load ptr, ptr %33, align 32, !tbaa !122
  br label %35

35:                                               ; preds = %31, %29
  %36 = phi ptr [ %30, %29 ], [ %34, %31 ]
  store ptr %36, ptr %9, align 8, !tbaa !159
  %37 = load ptr, ptr %9, align 8, !tbaa !159
  %38 = call noundef zeroext i1 @_ZN3tbb6detail2d020assert_pointer_validILm0ENS0_2d118task_group_contextEEEbPT0_PKc(ptr noundef %37, ptr noundef @.str.2)
  %39 = load ptr, ptr %8, align 8, !tbaa !43
  %40 = load ptr, ptr %4, align 8, !tbaa !133
  %41 = load ptr, ptr %9, align 8, !tbaa !159
  %42 = load ptr, ptr %7, align 8, !tbaa !3
  call void @_ZN3tbb6detail2r15arena12enqueue_taskERNS0_2d14taskERNS3_18task_group_contextERNS1_11thread_dataE(ptr noundef nonnull align 128 dereferenceable(768) %39, ptr noundef nonnull align 64 dereferenceable(64) %40, ptr noundef nonnull align 8 dereferenceable(128) %41, ptr noundef nonnull align 8 dereferenceable(240) %42)
  call void @llvm.lifetime.end.p0(i64 8, ptr %9) #12
  call void @llvm.lifetime.end.p0(i64 8, ptr %8) #12
  call void @llvm.lifetime.end.p0(i64 8, ptr %7) #12
  ret void
}

; Function Attrs: mustprogress sspstrong uwtable
define void @_ZN3tbb6detail2r17enqueueERNS0_2d14taskERNS2_18task_group_contextEPNS2_15task_arena_baseE(ptr noundef nonnull align 64 dereferenceable(64) %0, ptr noundef nonnull align 8 dereferenceable(128) %1, ptr noundef %2) #2 {
  %4 = alloca ptr, align 8
  %5 = alloca ptr, align 8
  %6 = alloca ptr, align 8
  store ptr %0, ptr %4, align 8, !tbaa !133
  store ptr %1, ptr %5, align 8, !tbaa !159
  store ptr %2, ptr %6, align 8, !tbaa !237
  %7 = load ptr, ptr %4, align 8, !tbaa !133
  %8 = load ptr, ptr %5, align 8, !tbaa !159
  %9 = load ptr, ptr %6, align 8, !tbaa !237
  call void @_ZN3tbb6detail2r115task_arena_impl7enqueueERNS0_2d14taskEPNS3_18task_group_contextEPNS3_15task_arena_baseE(ptr noundef nonnull align 64 dereferenceable(64) %7, ptr noundef %8, ptr noundef %9)
  ret void
}