; Function Attrs: mustprogress sspstrong uwtable
define void @_ZN3tbb6detail2r17enqueueERNS0_2d14taskERNS2_18task_group_contextEPNS2_15task_arena_baseE(ptr noundef nonnull align 64 dereferenceable(64) initializes((16, 24), (32, 40)) %0, ptr noundef nonnull align 8 dereferenceable(128) %1, ptr noundef readonly %2) local_unnamed_addr #1 {
  %4 = load i32, ptr @_ZN3tbb6detail2r18governor6theTLSE, align 4, !tbaa !111
  %5 = tail call noundef ptr @pthread_getspecific(i32 noundef %4) #13
  %.not.i.i = icmp eq ptr %5, null
  br i1 %.not.i.i, label %6, label %_ZN3tbb6detail2r18governor15get_thread_dataEv.exit.i

6:                                                ; preds = %3
  tail call void @_ZN3tbb6detail2r18governor20init_external_threadEv()
  %7 = load i32, ptr @_ZN3tbb6detail2r18governor6theTLSE, align 4, !tbaa !111
  %8 = tail call noundef ptr @pthread_getspecific(i32 noundef %7) #13
  br label %_ZN3tbb6detail2r18governor15get_thread_dataEv.exit.i

_ZN3tbb6detail2r18governor15get_thread_dataEv.exit.i: ; preds = %6, %3
  %.0.i.i = phi ptr [ %8, %6 ], [ %5, %3 ]
  %.not.i = icmp eq ptr %2, null
  br i1 %.not.i, label %12, label %9

9:                                                ; preds = %_ZN3tbb6detail2r18governor15get_thread_dataEv.exit.i
  %10 = getelementptr inbounds nuw i8, ptr %2, i64 16
  %11 = load atomic i64, ptr %10 monotonic, align 8
  %.0.i.i.i = inttoptr i64 %11 to ptr
  br label %_ZN3tbb6detail2r115task_arena_impl7enqueueERNS0_2d14taskEPNS3_18task_group_contextEPNS3_15task_arena_baseE.exit

12:                                               ; preds = %_ZN3tbb6detail2r18governor15get_thread_dataEv.exit.i
  %13 = getelementptr inbounds nuw i8, ptr %.0.i.i, i64 32
  %14 = load ptr, ptr %13, align 8, !tbaa !115
  br label %_ZN3tbb6detail2r115task_arena_impl7enqueueERNS0_2d14taskEPNS3_18task_group_contextEPNS3_15task_arena_baseE.exit

_ZN3tbb6detail2r115task_arena_impl7enqueueERNS0_2d14taskEPNS3_18task_group_contextEPNS3_15task_arena_baseE.exit: ; preds = %9, %12
  %15 = phi ptr [ %.0.i.i.i, %9 ], [ %14, %12 ]
  tail call void @_ZN3tbb6detail2r15arena12enqueue_taskERNS0_2d14taskERNS3_18task_group_contextERNS1_11thread_dataE(ptr noundef nonnull align 128 dereferenceable(768) %15, ptr noundef nonnull align 64 dereferenceable(64) %0, ptr noundef nonnull align 8 dereferenceable(128) %1, ptr noundef nonnull align 8 dereferenceable(240) %.0.i.i)
  ret void
}